(dp1
S'time_taken'
p2
F47.199300000000001
sS'extraInfo'
p3
(dp4
Vseed
p5
I417605558
ssS'calibration'
p6
(dp7
sS'measure'
p8
(dp9
Vqubits
p10
(lp11
I0
aI1
aI2
aI3
aI14
aI15
asVlabels
p12
(lp13
V0000000000111111
p14
asVvalues
p15
(lp16
I1
ass.