(dp1
S'time_taken'
p2
F21.1403
sS'extraInfo'
p3
(dp4
Vseed
p5
I4154248971
ssS'calibration'
p6
(dp7
sS'measure'
p8
(dp9
Vqubits
p10
(lp11
I1
aI2
aI4
aI12
aI13
aI14
asVlabels
p12
(lp13
V0000000000100111
p14
asVvalues
p15
(lp16
I1
ass.