(dp1
S'time_taken'
p2
F43.707299999999996
sS'extraInfo'
p3
(dp4
Vseed
p5
I8699161
ssS'calibration'
p6
(dp7
sS'measure'
p8
(dp9
Vqubits
p10
(lp11
I1
aI4
aI6
aI11
aI12
aI13
aI14
aI15
asVlabels
p12
(lp13
V0000000010011111
p14
asVvalues
p15
(lp16
I1
ass.