(dp1
S'time_taken'
p2
F17.718800000000002
sS'extraInfo'
p3
(dp4
Vseed
p5
I1517297558
ssS'calibration'
p6
(dp7
sS'measure'
p8
(dp9
Vqubits
p10
(lp11
I0
aI2
aI3
aI4
aI5
aI6
aI7
aI11
asVlabels
p12
(lp13
V0000000010000001
p14
asVvalues
p15
(lp16
I1
ass.