(dp1
S'time_taken'
p2
F20.796700000000001
sS'extraInfo'
p3
(dp4
Vseed
p5
I3152790091
ssS'calibration'
p6
(dp7
sS'measure'
p8
(dp9
Vqubits
p10
(lp11
I0
aI2
aI14
aI15
asVlabels
p12
(lp13
V0000000000001111
p14
asVvalues
p15
(lp16
I1
ass.