(dp1
S'time_taken'
p2
F17.712399999999999
sS'extraInfo'
p3
(dp4
Vseed
p5
I2362364598
ssS'calibration'
p6
(dp7
sS'measure'
p8
(dp9
Vqubits
p10
(lp11
I1
aI3
aI5
aI6
aI10
aI13
aI14
aI15
asVlabels
p12
(lp13
V0000000010000111
p14
asVvalues
p15
(lp16
I1
ass.