(dp1
S'time_taken'
p2
F13.003500000000001
sS'extraInfo'
p3
(dp4
Vseed
p5
I2557109029
ssS'calibration'
p6
(dp7
sS'measure'
p8
(dp9
Vqubits
p10
(lp11
I1
aI2
aI3
aI15
asVlabels
p12
(lp13
V0000000000001001
p14
asVvalues
p15
(lp16
I1
ass.